; ModuleID = '50/1976.cpp'
source_filename = "50/1976.cpp"
target datalayout = "e-m:e-p270:32:32-p271:32:32-p272:64:64-i64:64-f80:128-n8:16:32:64-S128"
target triple = "x86_64-pc-linux-gnu"

%"class.std::ios_base::Init" = type { i8 }
%"class.std::basic_istream" = type { i32 (...)**, i64, %"class.std::basic_ios" }
%"class.std::basic_ios" = type { %"class.std::ios_base", %"class.std::basic_ostream"*, i8, i8, %"class.std::basic_streambuf"*, %"class.std::ctype"*, %"class.std::num_put"*, %"class.std::num_get"* }
%"class.std::ios_base" = type { i32 (...)**, i64, i64, i32, i32, i32, %"struct.std::ios_base::_Callback_list"*, %"struct.std::ios_base::_Words", [8 x %"struct.std::ios_base::_Words"], i32, %"struct.std::ios_base::_Words"*, %"class.std::locale" }
%"struct.std::ios_base::_Callback_list" = type { %"struct.std::ios_base::_Callback_list"*, void (i32, %"class.std::ios_base"*, i32)*, i32, i32 }
%"struct.std::ios_base::_Words" = type { i8*, i64 }
%"class.std::locale" = type { %"class.std::locale::_Impl"* }
%"class.std::locale::_Impl" = type { i32, %"class.std::locale::facet"**, i64, %"class.std::locale::facet"**, i8** }
%"class.std::locale::facet" = type <{ i32 (...)**, i32, [4 x i8] }>
%"class.std::basic_ostream" = type { i32 (...)**, %"class.std::basic_ios" }
%"class.std::basic_streambuf" = type { i32 (...)**, i8*, i8*, i8*, i8*, i8*, i8*, %"class.std::locale" }
%"class.std::ctype" = type <{ %"class.std::locale::facet.base", [4 x i8], %struct.__locale_struct*, i8, [7 x i8], i32*, i32*, i16*, i8, [256 x i8], [256 x i8], i8, [6 x i8] }>
%"class.std::locale::facet.base" = type <{ i32 (...)**, i32 }>
%struct.__locale_struct = type { [13 x %struct.__locale_data*], i16*, i32*, i32*, [13 x i8*] }
%struct.__locale_data = type opaque
%"class.std::num_put" = type { %"class.std::locale::facet.base", [4 x i8] }
%"class.std::num_get" = type { %"class.std::locale::facet.base", [4 x i8] }

@_ZStL8__ioinit = internal global %"class.std::ios_base::Init" zeroinitializer, align 1
@__dso_handle = external hidden global i8
@_ZSt3cin = external dso_local global %"class.std::basic_istream", align 8
@_ZSt4cout = external dso_local global %"class.std::basic_ostream", align 8
@llvm.global_ctors = appending global [1 x { i32, void ()*, i8* }] [{ i32, void ()*, i8* } { i32 65535, void ()* @_GLOBAL__sub_I_1976.cpp, i8* null }]

; Function Attrs: noinline uwtable
define internal void @__cxx_global_var_init() #0 section ".text.startup" {
  call void @_ZNSt8ios_base4InitC1Ev(%"class.std::ios_base::Init"* @_ZStL8__ioinit)
  %1 = call i32 @__cxa_atexit(void (i8*)* bitcast (void (%"class.std::ios_base::Init"*)* @_ZNSt8ios_base4InitD1Ev to void (i8*)*), i8* getelementptr inbounds (%"class.std::ios_base::Init", %"class.std::ios_base::Init"* @_ZStL8__ioinit, i32 0, i32 0), i8* @__dso_handle) #3
  ret void
}

declare dso_local void @_ZNSt8ios_base4InitC1Ev(%"class.std::ios_base::Init"*) unnamed_addr #1

; Function Attrs: nounwind
declare dso_local void @_ZNSt8ios_base4InitD1Ev(%"class.std::ios_base::Init"*) unnamed_addr #2

; Function Attrs: nounwind
declare dso_local i32 @__cxa_atexit(void (i8*)*, i8*, i8*) #3

; Function Attrs: noinline norecurse uwtable
define dso_local i32 @main() #4 {
  %1 = alloca i32, align 4
  %2 = alloca i32, align 4
  %3 = alloca i32, align 4
  %4 = alloca i32, align 4
  %5 = alloca i32, align 4
  %6 = alloca [13 x i32], align 16
  %7 = alloca i32, align 4
  store i32 0, i32* %1, align 4
  store i32 0, i32* %5, align 4
  store i32 0, i32* %7, align 4
  %8 = call dereferenceable(280) %"class.std::basic_istream"* @_ZNSirsERi(%"class.std::basic_istream"* @_ZSt3cin, i32* dereferenceable(4) %2)
  store i32 1, i32* %4, align 4
  br label %9

9:                                                ; preds = %73, %0
  %10 = load i32, i32* %4, align 4
  %11 = icmp sle i32 %10, 12
  br i1 %11, label %12, label %76

12:                                               ; preds = %9
  %13 = load i32, i32* %5, align 4
  %14 = add nsw i32 %13, 13
  %15 = srem i32 %14, 7
  %16 = load i32, i32* %2, align 4
  %17 = sub nsw i32 13, %16
  %18 = srem i32 %17, 7
  %19 = icmp eq i32 %15, %18
  br i1 %19, label %20, label %27

20:                                               ; preds = %12
  %21 = load i32, i32* %4, align 4
  %22 = load i32, i32* %7, align 4
  %23 = sext i32 %22 to i64
  %24 = getelementptr inbounds [13 x i32], [13 x i32]* %6, i64 0, i64 %23
  store i32 %21, i32* %24, align 4
  %25 = load i32, i32* %7, align 4
  %26 = add nsw i32 %25, 1
  store i32 %26, i32* %7, align 4
  br label %27

27:                                               ; preds = %20, %12
  %28 = load i32, i32* %4, align 4
  %29 = icmp eq i32 %28, 1
  br i1 %29, label %48, label %30

30:                                               ; preds = %27
  %31 = load i32, i32* %4, align 4
  %32 = icmp eq i32 %31, 3
  br i1 %32, label %48, label %33

33:                                               ; preds = %30
  %34 = load i32, i32* %4, align 4
  %35 = icmp eq i32 %34, 5
  br i1 %35, label %48, label %36

36:                                               ; preds = %33
  %37 = load i32, i32* %4, align 4
  %38 = icmp eq i32 %37, 7
  br i1 %38, label %48, label %39

39:                                               ; preds = %36
  %40 = load i32, i32* %4, align 4
  %41 = icmp eq i32 %40, 8
  br i1 %41, label %48, label %42

42:                                               ; preds = %39
  %43 = load i32, i32* %4, align 4
  %44 = icmp eq i32 %43, 10
  br i1 %44, label %48, label %45

45:                                               ; preds = %42
  %46 = load i32, i32* %4, align 4
  %47 = icmp eq i32 %46, 12
  br i1 %47, label %48, label %51

48:                                               ; preds = %45, %42, %39, %36, %33, %30, %27
  %49 = load i32, i32* %5, align 4
  %50 = add nsw i32 %49, 31
  store i32 %50, i32* %5, align 4
  br label %51

51:                                               ; preds = %48, %45
  %52 = load i32, i32* %4, align 4
  %53 = icmp eq i32 %52, 4
  br i1 %53, label %63, label %54

54:                                               ; preds = %51
  %55 = load i32, i32* %4, align 4
  %56 = icmp eq i32 %55, 6
  br i1 %56, label %63, label %57

57:                                               ; preds = %54
  %58 = load i32, i32* %4, align 4
  %59 = icmp eq i32 %58, 9
  br i1 %59, label %63, label %60

60:                                               ; preds = %57
  %61 = load i32, i32* %4, align 4
  %62 = icmp eq i32 %61, 11
  br i1 %62, label %63, label %66

63:                                               ; preds = %60, %57, %54, %51
  %64 = load i32, i32* %5, align 4
  %65 = add nsw i32 %64, 30
  store i32 %65, i32* %5, align 4
  br label %66

66:                                               ; preds = %63, %60
  %67 = load i32, i32* %4, align 4
  %68 = icmp eq i32 %67, 2
  br i1 %68, label %69, label %72

69:                                               ; preds = %66
  %70 = load i32, i32* %5, align 4
  %71 = add nsw i32 %70, 28
  store i32 %71, i32* %5, align 4
  br label %72

72:                                               ; preds = %69, %66
  br label %73

73:                                               ; preds = %72
  %74 = load i32, i32* %4, align 4
  %75 = add nsw i32 %74, 1
  store i32 %75, i32* %4, align 4
  br label %9

76:                                               ; preds = %9
  store i32 0, i32* %3, align 4
  br label %77

77:                                               ; preds = %89, %76
  %78 = load i32, i32* %3, align 4
  %79 = load i32, i32* %7, align 4
  %80 = sub nsw i32 %79, 1
  %81 = icmp sle i32 %78, %80
  br i1 %81, label %82, label %92

82:                                               ; preds = %77
  %83 = load i32, i32* %3, align 4
  %84 = sext i32 %83 to i64
  %85 = getelementptr inbounds [13 x i32], [13 x i32]* %6, i64 0, i64 %84
  %86 = load i32, i32* %85, align 4
  %87 = call dereferenceable(272) %"class.std::basic_ostream"* @_ZNSolsEi(%"class.std::basic_ostream"* @_ZSt4cout, i32 %86)
  %88 = call dereferenceable(272) %"class.std::basic_ostream"* @_ZNSolsEPFRSoS_E(%"class.std::basic_ostream"* %87, %"class.std::basic_ostream"* (%"class.std::basic_ostream"*)* @_ZSt4endlIcSt11char_traitsIcEERSt13basic_ostreamIT_T0_ES6_)
  br label %89

89:                                               ; preds = %82
  %90 = load i32, i32* %3, align 4
  %91 = add nsw i32 %90, 1
  store i32 %91, i32* %3, align 4
  br label %77

92:                                               ; preds = %77
  ret i32 0
}

declare dso_local dereferenceable(280) %"class.std::basic_istream"* @_ZNSirsERi(%"class.std::basic_istream"*, i32* dereferenceable(4)) #1

declare dso_local dereferenceable(272) %"class.std::basic_ostream"* @_ZNSolsEi(%"class.std::basic_ostream"*, i32) #1

declare dso_local dereferenceable(272) %"class.std::basic_ostream"* @_ZNSolsEPFRSoS_E(%"class.std::basic_ostream"*, %"class.std::basic_ostream"* (%"class.std::basic_ostream"*)*) #1

declare dso_local dereferenceable(272) %"class.std::basic_ostream"* @_ZSt4endlIcSt11char_traitsIcEERSt13basic_ostreamIT_T0_ES6_(%"class.std::basic_ostream"* dereferenceable(272)) #1

; Function Attrs: noinline uwtable
define internal void @_GLOBAL__sub_I_1976.cpp() #0 section ".text.startup" {
  call void @__cxx_global_var_init()
  ret void
}


!llvm.module.flags = !{!0}
!llvm.ident = !{!1}

!0 = !{i32 1, !"wchar_size", i32 4}
!1 = !{!"clang version 10.0.0-4ubuntu1 "}
